(dp0
Vengine
p1
Vpdflatex
p2
sVpackages
p3
c__builtin__
set
p4
((lp5
Vhyperref
p6
aVgraphicx
p7
aVtitlesec
p8
aVfontenc
p9
atp10
Rp11
sVfiles_with_guttermarks
p12
g4
((lp13
V/Users/kunal/Developer/titanic/LaTeX/proposal/./proposal.tex
p14
aV/Users/kunal/Developer/titanic/LaTeX/proposal/proposal.tex
p15
aS'proposal.tex'
p16
atp17
Rp18
sVsynctex
p19
I01
s.